target datalayout = "e-m:e-p270:32:32-p271:32:32-p272:64:64-i64:64-i128:128-f80:128-n8:16:32:64-S128"
target triple = "x86_64-pc-linux-gnu"

%struct.dictDefragFunctions = type { ptr, ptr, ptr }

; Function Attrs: nounwind uwtable
define dso_local void @activeDefragSdsDict(ptr noundef %0, i32 noundef %1) #0 {
  %3 = alloca ptr, align 8
  %4 = alloca i32, align 4
  %5 = alloca i64, align 8
  %6 = alloca %struct.dictDefragFunctions, align 8
  store ptr %0, ptr %3, align 8, !tbaa !53
  store i32 %1, ptr %4, align 4, !tbaa !44
  call void @llvm.lifetime.start.p0(i64 8, ptr %5) #10
  store i64 0, ptr %5, align 8, !tbaa !39
  call void @llvm.lifetime.start.p0(i64 24, ptr %6) #10
  %7 = getelementptr inbounds nuw %struct.dictDefragFunctions, ptr %6, i32 0, i32 0
  store ptr @activeDefragAlloc, ptr %7, align 8, !tbaa !81
  %8 = getelementptr inbounds nuw %struct.dictDefragFunctions, ptr %6, i32 0, i32 1
  store ptr @activeDefragSds, ptr %8, align 8, !tbaa !83
  %9 = getelementptr inbounds nuw %struct.dictDefragFunctions, ptr %6, i32 0, i32 2
  %10 = load i32, ptr %4, align 4, !tbaa !44
  %11 = icmp eq i32 %10, 1
  br i1 %11, label %12, label %13

12:                                               ; preds = %2
  br label %29

13:                                               ; preds = %2
  %14 = load i32, ptr %4, align 4, !tbaa !44
  %15 = icmp eq i32 %14, 2
  br i1 %15, label %16, label %17

16:                                               ; preds = %13
  br label %27

17:                                               ; preds = %13
  %18 = load i32, ptr %4, align 4, !tbaa !44
  %19 = icmp eq i32 %18, 3
  br i1 %19, label %20, label %21

20:                                               ; preds = %17
  br label %25

21:                                               ; preds = %17
  %22 = load i32, ptr %4, align 4, !tbaa !44
  %23 = icmp eq i32 %22, 4
  %24 = select i1 %23, ptr @activeDefragLuaScript, ptr null
  br label %25

25:                                               ; preds = %21, %20
  %26 = phi ptr [ @activeDefragAlloc, %20 ], [ %24, %21 ]
  br label %27

27:                                               ; preds = %25, %16
  %28 = phi ptr [ @activeDefragStringOb, %16 ], [ %26, %25 ]
  br label %29

29:                                               ; preds = %27, %12
  %30 = phi ptr [ @activeDefragSds, %12 ], [ %28, %27 ]
  store ptr %30, ptr %9, align 8, !tbaa !84
  br label %31

31:                                               ; preds = %35, %29
  %32 = load ptr, ptr %3, align 8, !tbaa !53
  %33 = load i64, ptr %5, align 8, !tbaa !39
  %34 = call i64 @dictScanDefrag(ptr noundef %32, i64 noundef %33, ptr noundef @activeDefragSdsDictCallback, ptr noundef %6, ptr noundef null)
  store i64 %34, ptr %5, align 8, !tbaa !39
  br label %35

35:                                               ; preds = %31
  %36 = load i64, ptr %5, align 8, !tbaa !39
  %37 = icmp ne i64 %36, 0
  br i1 %37, label %31, label %38, !llvm.loop !85

38:                                               ; preds = %35
  call void @llvm.lifetime.end.p0(i64 24, ptr %6) #10
  call void @llvm.lifetime.end.p0(i64 8, ptr %5) #10
  ret void
}