; Function Attrs: nounwind uwtable
define dso_local void @activeDefragSdsDict(ptr noundef %0, i32 noundef %1) local_unnamed_addr #0 {
  %3 = alloca %struct.dictDefragFunctions, align 8
  call void @llvm.lifetime.start.p0(i64 24, ptr nonnull %3) #10
  store ptr @activeDefragAlloc, ptr %3, align 8, !tbaa !68
  %4 = getelementptr inbounds nuw i8, ptr %3, i64 8
  store ptr @activeDefragSds, ptr %4, align 8, !tbaa !70
  %5 = getelementptr inbounds nuw i8, ptr %3, i64 16
  switch i32 %1, label %6 [
    i32 1, label %11
    i32 2, label %.fold.split
  ]

6:                                                ; preds = %2
  %7 = icmp eq i32 %1, 3
  %8 = icmp eq i32 %1, 4
  %9 = select i1 %8, ptr @activeDefragLuaScript, ptr null
  %10 = select i1 %7, ptr @activeDefragAlloc, ptr %9
  br label %11

.fold.split:                                      ; preds = %2
  br label %11

11:                                               ; preds = %2, %.fold.split, %6
  %12 = phi ptr [ @activeDefragSds, %2 ], [ %10, %6 ], [ @activeDefragStringOb, %.fold.split ]
  store ptr %12, ptr %5, align 8, !tbaa !71
  br label %13

13:                                               ; preds = %13, %11
  %.0 = phi i64 [ 0, %11 ], [ %14, %13 ]
  %14 = call i64 @dictScanDefrag(ptr noundef %0, i64 noundef %.0, ptr noundef nonnull @activeDefragSdsDictCallback, ptr noundef nonnull %3, ptr noundef null) #10
  %.not = icmp eq i64 %14, 0
  br i1 %.not, label %15, label %13, !llvm.loop !72

15:                                               ; preds = %13
  call void @llvm.lifetime.end.p0(i64 24, ptr nonnull %3) #10
  ret void
}